target datalayout = "e-m:e-p270:32:32-p271:32:32-p272:64:64-i64:64-i128:128-f80:128-n8:16:32:64-S128"
target triple = "x86_64-pc-linux-gnu"

%struct.expert_field = type { i32, i32 }
%struct._packet_info = type { ptr, ptr, i32, i32, %struct.nstime_t, %struct.nstime_t, %struct.nstime_t, i8, ptr, ptr, ptr, ptr, %struct._address, %struct._address, %struct._address, %struct._address, %struct._address, %struct._address, i32, ptr, i8, [3 x i8], %struct.anon, i32, i32, i32, i32, ptr, i8, ptr, ptr, i16, i16, i32, i32, i16, i32, i32, ptr, ptr, ptr, i8, i8, i16, i16, i16, i32, i16, i16, ptr, ptr, ptr, ptr, ptr, i32, i32 }
%struct.nstime_t = type { i64, i32 }
%struct._address = type { i32, i32, ptr, ptr }
%struct.anon = type { i8, [3 x i8] }

@hf_telnet_subcmd = internal global i32 0, align 4
@hf_telnet_string_subopt_value = internal global i32 0, align 4
@hf_telnet_subcommand_data = internal global i32 0, align 4
@ei_telnet_invalid_subcommand = internal global %struct.expert_field zeroinitializer, align 4
@.str.327 = private unnamed_addr constant [14 x i8] c"Terminal Type\00", align 1
@.str.352 = private unnamed_addr constant [13 x i8] c"Here's my %s\00", align 1
@.str.353 = private unnamed_addr constant [13 x i8] c"Send your %s\00", align 1
@.str.354 = private unnamed_addr constant [25 x i8] c"Invalid %s subcommand %u\00", align 1
@.str.359 = private unnamed_addr constant [11 x i8] c"Extra data\00", align 1
@.str.360 = private unnamed_addr constant [13 x i8] c"IBM-5555-C01\00", align 1
@.str.361 = private unnamed_addr constant [13 x i8] c"IBM-5555-B01\00", align 1
@.str.362 = private unnamed_addr constant [12 x i8] c"IBM-3477-FC\00", align 1
@.str.363 = private unnamed_addr constant [12 x i8] c"IBM-3477-FG\00", align 1
@.str.364 = private unnamed_addr constant [11 x i8] c"IBM-3180-2\00", align 1
@.str.365 = private unnamed_addr constant [11 x i8] c"IBM-3179-2\00", align 1
@.str.366 = private unnamed_addr constant [12 x i8] c"IBM-3196-A1\00", align 1
@.str.367 = private unnamed_addr constant [11 x i8] c"IBM-5292-2\00", align 1
@.str.368 = private unnamed_addr constant [11 x i8] c"IBM-5291-1\00", align 1
@.str.369 = private unnamed_addr constant [12 x i8] c"IBM-5251-11\00", align 1

; Function Attrs: null_pointer_is_valid sspstrong uwtable
define internal void @check_for_tn3270(ptr noundef %0, ptr noundef %1, ptr noundef %2) #0 {
  %4 = alloca ptr, align 8
  %5 = alloca ptr, align 8
  %6 = alloca ptr, align 8
  store ptr %0, ptr %4, align 8
  store ptr %1, ptr %5, align 8
  store ptr %2, ptr %6, align 8
  %7 = load ptr, ptr %5, align 8
  %8 = call i32 @strcmp(ptr noundef %7, ptr noundef @.str.327) #8
  %9 = icmp ne i32 %8, 0
  br i1 %9, label %10, label %11

10:                                               ; preds = %3
  br label %55

11:                                               ; preds = %3
  %12 = load ptr, ptr %4, align 8
  %13 = load ptr, ptr %6, align 8
  call void @check_tn3270_model(ptr noundef %12, ptr noundef %13)
  %14 = load ptr, ptr %6, align 8
  %15 = call i32 @strcmp(ptr noundef %14, ptr noundef @.str.360) #8
  %16 = icmp eq i32 %15, 0
  br i1 %16, label %53, label %17

17:                                               ; preds = %11
  %18 = load ptr, ptr %6, align 8
  %19 = call i32 @strcmp(ptr noundef %18, ptr noundef @.str.361) #8
  %20 = icmp eq i32 %19, 0
  br i1 %20, label %53, label %21

21:                                               ; preds = %17
  %22 = load ptr, ptr %6, align 8
  %23 = call i32 @strcmp(ptr noundef %22, ptr noundef @.str.362) #8
  %24 = icmp eq i32 %23, 0
  br i1 %24, label %53, label %25

25:                                               ; preds = %21
  %26 = load ptr, ptr %6, align 8
  %27 = call i32 @strcmp(ptr noundef %26, ptr noundef @.str.363) #8
  %28 = icmp eq i32 %27, 0
  br i1 %28, label %53, label %29

29:                                               ; preds = %25
  %30 = load ptr, ptr %6, align 8
  %31 = call i32 @strcmp(ptr noundef %30, ptr noundef @.str.364) #8
  %32 = icmp eq i32 %31, 0
  br i1 %32, label %53, label %33

33:                                               ; preds = %29
  %34 = load ptr, ptr %6, align 8
  %35 = call i32 @strcmp(ptr noundef %34, ptr noundef @.str.365) #8
  %36 = icmp eq i32 %35, 0
  br i1 %36, label %53, label %37

37:                                               ; preds = %33
  %38 = load ptr, ptr %6, align 8
  %39 = call i32 @strcmp(ptr noundef %38, ptr noundef @.str.366) #8
  %40 = icmp eq i32 %39, 0
  br i1 %40, label %53, label %41

41:                                               ; preds = %37
  %42 = load ptr, ptr %6, align 8
  %43 = call i32 @strcmp(ptr noundef %42, ptr noundef @.str.367) #8
  %44 = icmp eq i32 %43, 0
  br i1 %44, label %53, label %45

45:                                               ; preds = %41
  %46 = load ptr, ptr %6, align 8
  %47 = call i32 @strcmp(ptr noundef %46, ptr noundef @.str.368) #8
  %48 = icmp eq i32 %47, 0
  br i1 %48, label %53, label %49

49:                                               ; preds = %45
  %50 = load ptr, ptr %6, align 8
  %51 = call i32 @strcmp(ptr noundef %50, ptr noundef @.str.369) #8
  %52 = icmp eq i32 %51, 0
  br i1 %52, label %53, label %55

53:                                               ; preds = %49, %45, %41, %37, %33, %29, %25, %21, %17, %11
  %54 = load ptr, ptr %4, align 8
  call void @add_tn5250_conversation(ptr noundef %54, i32 noundef 0)
  br label %55

55:                                               ; preds = %10, %53, %49
  ret void
}

; Function Attrs: null_pointer_is_valid sspstrong uwtable
define internal void @dissect_string_subopt(ptr noundef %0, ptr noundef %1, ptr noundef %2, i32 noundef %3, i32 noundef %4, ptr noundef %5, ptr noundef %6) #0 {
  %8 = alloca ptr, align 8
  %9 = alloca ptr, align 8
  %10 = alloca ptr, align 8
  %11 = alloca i32, align 4
  %12 = alloca i32, align 4
  %13 = alloca ptr, align 8
  %14 = alloca ptr, align 8
  %15 = alloca i8, align 1
  store ptr %0, ptr %8, align 8
  store ptr %1, ptr %9, align 8
  store ptr %2, ptr %10, align 8
  store i32 %3, ptr %11, align 4
  store i32 %4, ptr %12, align 4
  store ptr %5, ptr %13, align 8
  store ptr %6, ptr %14, align 8
  call void @llvm.lifetime.start.p0(i64 1, ptr %15) #7
  %16 = load ptr, ptr %10, align 8
  %17 = load i32, ptr %11, align 4
  %18 = call zeroext i8 @tvb_get_uint8(ptr noundef %16, i32 noundef %17)
  store i8 %18, ptr %15, align 1
  %19 = load i8, ptr %15, align 1
  %20 = zext i8 %19 to i32
  switch i32 %20, label %76 [
    i32 0, label %21
    i32 1, label %53
  ]

21:                                               ; preds = %7
  %22 = load ptr, ptr %13, align 8
  %23 = load i32, ptr @hf_telnet_subcmd, align 4
  %24 = load ptr, ptr %10, align 8
  %25 = load i32, ptr %11, align 4
  %26 = load i8, ptr %15, align 1
  %27 = zext i8 %26 to i32
  %28 = load ptr, ptr %9, align 8
  %29 = call ptr (ptr, i32, ptr, i32, i32, i32, ptr, ...) @proto_tree_add_uint_format(ptr noundef %22, i32 noundef %23, ptr noundef %24, i32 noundef %25, i32 noundef 1, i32 noundef %27, ptr noundef @.str.352, ptr noundef %28)
  %30 = load i32, ptr %11, align 4
  %31 = add i32 %30, 1
  store i32 %31, ptr %11, align 4
  %32 = load i32, ptr %12, align 4
  %33 = add i32 %32, -1
  store i32 %33, ptr %12, align 4
  %34 = load i32, ptr %12, align 4
  %35 = icmp sgt i32 %34, 0
  br i1 %35, label %36, label %43

36:                                               ; preds = %21
  %37 = load ptr, ptr %13, align 8
  %38 = load i32, ptr @hf_telnet_string_subopt_value, align 4
  %39 = load ptr, ptr %10, align 8
  %40 = load i32, ptr %11, align 4
  %41 = load i32, ptr %12, align 4
  %42 = call ptr @proto_tree_add_item(ptr noundef %37, i32 noundef %38, ptr noundef %39, i32 noundef %40, i32 noundef %41, i32 noundef 0)
  br label %43

43:                                               ; preds = %36, %21
  %44 = load ptr, ptr %8, align 8
  %45 = load ptr, ptr %9, align 8
  %46 = load ptr, ptr %8, align 8
  %47 = getelementptr inbounds nuw %struct._packet_info, ptr %46, i32 0, i32 51
  %48 = load ptr, ptr %47, align 8
  %49 = load ptr, ptr %10, align 8
  %50 = load i32, ptr %11, align 4
  %51 = load i32, ptr %12, align 4
  %52 = call ptr @tvb_format_text(ptr noundef %48, ptr noundef %49, i32 noundef %50, i32 noundef %51)
  call void @check_for_tn3270(ptr noundef %44, ptr noundef %45, ptr noundef %52)
  br label %97

53:                                               ; preds = %7
  %54 = load ptr, ptr %13, align 8
  %55 = load i32, ptr @hf_telnet_subcmd, align 4
  %56 = load ptr, ptr %10, align 8
  %57 = load i32, ptr %11, align 4
  %58 = load i8, ptr %15, align 1
  %59 = zext i8 %58 to i32
  %60 = load ptr, ptr %9, align 8
  %61 = call ptr (ptr, i32, ptr, i32, i32, i32, ptr, ...) @proto_tree_add_uint_format(ptr noundef %54, i32 noundef %55, ptr noundef %56, i32 noundef %57, i32 noundef 1, i32 noundef %59, ptr noundef @.str.353, ptr noundef %60)
  %62 = load i32, ptr %11, align 4
  %63 = add i32 %62, 1
  store i32 %63, ptr %11, align 4
  %64 = load i32, ptr %12, align 4
  %65 = add i32 %64, -1
  store i32 %65, ptr %12, align 4
  %66 = load i32, ptr %12, align 4
  %67 = icmp sgt i32 %66, 0
  br i1 %67, label %68, label %75

68:                                               ; preds = %53
  %69 = load ptr, ptr %13, align 8
  %70 = load i32, ptr @hf_telnet_subcommand_data, align 4
  %71 = load ptr, ptr %10, align 8
  %72 = load i32, ptr %11, align 4
  %73 = load i32, ptr %12, align 4
  %74 = call ptr (ptr, i32, ptr, i32, i32, ptr, ptr, ...) @proto_tree_add_bytes_format(ptr noundef %69, i32 noundef %70, ptr noundef %71, i32 noundef %72, i32 noundef %73, ptr noundef null, ptr noundef @.str.359)
  br label %75

75:                                               ; preds = %68, %53
  br label %97

76:                                               ; preds = %7
  %77 = load ptr, ptr %8, align 8
  %78 = load ptr, ptr %14, align 8
  %79 = load ptr, ptr %9, align 8
  %80 = load i8, ptr %15, align 1
  %81 = zext i8 %80 to i32
  %82 = call ptr (ptr, ptr, ptr, ptr, ...) @expert_add_info_format(ptr noundef %77, ptr noundef %78, ptr noundef @ei_telnet_invalid_subcommand, ptr noundef @.str.354, ptr noundef %79, i32 noundef %81)
  %83 = load i32, ptr %11, align 4
  %84 = add i32 %83, 1
  store i32 %84, ptr %11, align 4
  %85 = load i32, ptr %12, align 4
  %86 = add i32 %85, -1
  store i32 %86, ptr %12, align 4
  %87 = load i32, ptr %12, align 4
  %88 = icmp sgt i32 %87, 0
  br i1 %88, label %89, label %96

89:                                               ; preds = %76
  %90 = load ptr, ptr %13, align 8
  %91 = load i32, ptr @hf_telnet_subcommand_data, align 4
  %92 = load ptr, ptr %10, align 8
  %93 = load i32, ptr %11, align 4
  %94 = load i32, ptr %12, align 4
  %95 = call ptr @proto_tree_add_item(ptr noundef %90, i32 noundef %91, ptr noundef %92, i32 noundef %93, i32 noundef %94, i32 noundef 0)
  br label %96

96:                                               ; preds = %89, %76
  br label %97

97:                                               ; preds = %96, %75, %43
  call void @llvm.lifetime.end.p0(i64 1, ptr %15) #7
  ret void
}