; Function Attrs: null_pointer_is_valid sspstrong uwtable
define internal void @dissect_string_subopt(ptr noundef %0, ptr noundef %1, ptr noundef %2, i32 noundef %3, i32 noundef %4, ptr noundef %5, ptr noundef %6) #0 {
  %8 = tail call zeroext i8 @tvb_get_uint8(ptr noundef %2, i32 noundef %3)
  switch i8 %8, label %63 [
    i8 0, label %9
    i8 1, label %54
  ]

9:                                                ; preds = %7
  %10 = load i32, ptr @hf_telnet_subcmd, align 4
  %11 = tail call ptr (ptr, i32, ptr, i32, i32, i32, ptr, ...) @proto_tree_add_uint_format(ptr noundef %5, i32 noundef %10, ptr noundef %2, i32 noundef %3, i32 noundef 1, i32 noundef 0, ptr noundef nonnull @.str.352, ptr noundef %1)
  %12 = add i32 %3, 1
  %13 = add i32 %4, -1
  %14 = icmp sgt i32 %13, 0
  br i1 %14, label %15, label %18

15:                                               ; preds = %9
  %16 = load i32, ptr @hf_telnet_string_subopt_value, align 4
  %17 = tail call ptr @proto_tree_add_item(ptr noundef %5, i32 noundef %16, ptr noundef %2, i32 noundef %12, i32 noundef %13, i32 noundef 0)
  br label %18

18:                                               ; preds = %15, %9
  %19 = getelementptr inbounds nuw i8, ptr %0, i64 408
  %20 = load ptr, ptr %19, align 8
  %21 = tail call ptr @tvb_format_text(ptr noundef %20, ptr noundef %2, i32 noundef %12, i32 noundef %13)
  %22 = tail call i32 @strcmp(ptr noundef readonly %1, ptr noundef nonnull dereferenceable(14) @.str.327) #9
  %.not.i = icmp eq i32 %22, 0
  br i1 %.not.i, label %23, label %check_for_tn3270.exit

23:                                               ; preds = %18
  tail call fastcc void @check_tn3270_model(ptr noundef %0, ptr noundef readonly %21)
  %24 = tail call i32 @strcmp(ptr noundef readonly %21, ptr noundef nonnull dereferenceable(13) @.str.360) #9
  %25 = icmp eq i32 %24, 0
  br i1 %25, label %53, label %26

26:                                               ; preds = %23
  %27 = tail call i32 @strcmp(ptr noundef readonly %21, ptr noundef nonnull dereferenceable(13) @.str.361) #9
  %28 = icmp eq i32 %27, 0
  br i1 %28, label %53, label %29

29:                                               ; preds = %26
  %30 = tail call i32 @strcmp(ptr noundef readonly %21, ptr noundef nonnull dereferenceable(12) @.str.362) #9
  %31 = icmp eq i32 %30, 0
  br i1 %31, label %53, label %32

32:                                               ; preds = %29
  %33 = tail call i32 @strcmp(ptr noundef readonly %21, ptr noundef nonnull dereferenceable(12) @.str.363) #9
  %34 = icmp eq i32 %33, 0
  br i1 %34, label %53, label %35

35:                                               ; preds = %32
  %36 = tail call i32 @strcmp(ptr noundef readonly %21, ptr noundef nonnull dereferenceable(11) @.str.364) #9
  %37 = icmp eq i32 %36, 0
  br i1 %37, label %53, label %38

38:                                               ; preds = %35
  %39 = tail call i32 @strcmp(ptr noundef readonly %21, ptr noundef nonnull dereferenceable(11) @.str.365) #9
  %40 = icmp eq i32 %39, 0
  br i1 %40, label %53, label %41

41:                                               ; preds = %38
  %42 = tail call i32 @strcmp(ptr noundef readonly %21, ptr noundef nonnull dereferenceable(12) @.str.366) #9
  %43 = icmp eq i32 %42, 0
  br i1 %43, label %53, label %44

44:                                               ; preds = %41
  %45 = tail call i32 @strcmp(ptr noundef readonly %21, ptr noundef nonnull dereferenceable(11) @.str.367) #9
  %46 = icmp eq i32 %45, 0
  br i1 %46, label %53, label %47

47:                                               ; preds = %44
  %48 = tail call i32 @strcmp(ptr noundef readonly %21, ptr noundef nonnull dereferenceable(11) @.str.368) #9
  %49 = icmp eq i32 %48, 0
  br i1 %49, label %53, label %50

50:                                               ; preds = %47
  %51 = tail call i32 @strcmp(ptr noundef readonly %21, ptr noundef nonnull dereferenceable(12) @.str.369) #9
  %52 = icmp eq i32 %51, 0
  br i1 %52, label %53, label %check_for_tn3270.exit

53:                                               ; preds = %50, %47, %44, %41, %38, %35, %32, %29, %26, %23
  tail call void @add_tn5250_conversation(ptr noundef %0, i32 noundef 0)
  br label %check_for_tn3270.exit

54:                                               ; preds = %7
  %55 = load i32, ptr @hf_telnet_subcmd, align 4
  %56 = tail call ptr (ptr, i32, ptr, i32, i32, i32, ptr, ...) @proto_tree_add_uint_format(ptr noundef %5, i32 noundef %55, ptr noundef %2, i32 noundef %3, i32 noundef 1, i32 noundef 1, ptr noundef nonnull @.str.353, ptr noundef %1)
  %57 = add i32 %4, -1
  %58 = icmp sgt i32 %57, 0
  br i1 %58, label %59, label %check_for_tn3270.exit

59:                                               ; preds = %54
  %60 = add i32 %3, 1
  %61 = load i32, ptr @hf_telnet_subcommand_data, align 4
  %62 = tail call ptr (ptr, i32, ptr, i32, i32, ptr, ptr, ...) @proto_tree_add_bytes_format(ptr noundef %5, i32 noundef %61, ptr noundef %2, i32 noundef %60, i32 noundef %57, ptr noundef null, ptr noundef nonnull @.str.359)
  br label %check_for_tn3270.exit

63:                                               ; preds = %7
  %64 = zext i8 %8 to i32
  %65 = tail call ptr (ptr, ptr, ptr, ptr, ...) @expert_add_info_format(ptr noundef %0, ptr noundef %6, ptr noundef nonnull @ei_telnet_invalid_subcommand, ptr noundef nonnull @.str.354, ptr noundef %1, i32 noundef %64)
  %66 = add i32 %4, -1
  %67 = icmp sgt i32 %66, 0
  br i1 %67, label %68, label %check_for_tn3270.exit

68:                                               ; preds = %63
  %69 = add i32 %3, 1
  %70 = load i32, ptr @hf_telnet_subcommand_data, align 4
  %71 = tail call ptr @proto_tree_add_item(ptr noundef %5, i32 noundef %70, ptr noundef %2, i32 noundef %69, i32 noundef %66, i32 noundef 0)
  br label %check_for_tn3270.exit

check_for_tn3270.exit:                            ; preds = %53, %50, %18, %63, %68, %54, %59
  ret void
}